target datalayout = "e-m:e-p270:32:32-p271:32:32-p272:64:64-i64:64-i128:128-f80:128-n8:16:32:64-S128"
target triple = "x86_64-pc-linux-gnu"

%class.QFlags = type { i32 }
%class.CaptureFileDialog = type <{ %class.WiresharkFileDialog, ptr, %class.QVBoxLayout, %class.QVBoxLayout, ptr, i32, [4 x i8], %class.QLabel, %class.QLabel, %class.QLabel, %class.QList, %class.QRadioButton, %class.QRadioButton, %class.QRadioButton, %class.QComboBox, %class.QHash, %class.QHash.0, i32, [4 x i8], %class.QCheckBox, %class.PacketRangeGroupBox, ptr, i32, [4 x i8] }>
%class.WiresharkFileDialog = type { %class.QFileDialog }
%class.QFileDialog = type { %class.QDialog }
%class.QDialog = type { %class.QWidget }
%class.QWidget = type { %class.QObject, %class.QPaintDevice.base, ptr }
%class.QObject = type { ptr, %class.QScopedPointer }
%class.QScopedPointer = type { ptr }
%class.QPaintDevice.base = type <{ ptr, i16 }>
%class.QVBoxLayout = type { %class.QBoxLayout.base, [4 x i8] }
%class.QBoxLayout.base = type { %class.QLayout.base }
%class.QLayout.base = type <{ %class.QObject, %class.QLayoutItem.base }>
%class.QLayoutItem.base = type <{ ptr, %class.QFlags }>
%class.QLabel = type { %class.QFrame }
%class.QFrame = type { %class.QWidget }
%class.QList = type { %struct.QArrayDataPointer }
%struct.QArrayDataPointer = type { ptr, ptr, i64 }
%class.QRadioButton = type { %class.QAbstractButton }
%class.QAbstractButton = type { %class.QWidget }
%class.QComboBox = type { %class.QWidget }
%class.QHash = type { ptr }
%class.QHash.0 = type { ptr }
%class.QCheckBox = type { %class.QAbstractButton }
%class.PacketRangeGroupBox = type <{ %class.QGroupBox, ptr, ptr, i32, [4 x i8] }>
%class.QGroupBox = type { %class.QWidget }

@mainApp = external global ptr, align 8

; Function Attrs: mustprogress uwtable
define void @_ZN17CaptureFileDialog26on_buttonBox_helpRequestedEv(ptr noundef nonnull align 8 dereferenceable(572) %0) #0 align 2 {
  %2 = alloca ptr, align 8
  store ptr %0, ptr %2, align 8
  %3 = load ptr, ptr %2, align 8
  %4 = getelementptr inbounds %class.CaptureFileDialog, ptr %3, i32 0, i32 22
  %5 = load i32, ptr %4, align 8
  %6 = icmp ne i32 %5, 0
  br i1 %6, label %7, label %11

7:                                                ; preds = %1
  %8 = load ptr, ptr @mainApp, align 8
  %9 = getelementptr inbounds %class.CaptureFileDialog, ptr %3, i32 0, i32 22
  %10 = load i32, ptr %9, align 8
  call void @_ZN15MainApplication15helpTopicActionE14topic_action_e(ptr noundef nonnull align 8 dereferenceable(216) %8, i32 noundef %10)
  br label %11

11:                                               ; preds = %7, %1
  ret void
}