; Function Attrs: mustprogress uwtable
define void @_ZN17CaptureFileDialog26on_buttonBox_helpRequestedEv(ptr nocapture noundef nonnull readonly align 8 dereferenceable(572) %0) #0 align 2 {
  %2 = getelementptr inbounds i8, ptr %0, i64 568
  %3 = load i32, ptr %2, align 8
  %.not = icmp eq i32 %3, 0
  br i1 %.not, label %6, label %4

4:                                                ; preds = %1
  %5 = load ptr, ptr @mainApp, align 8
  tail call void @_ZN15MainApplication15helpTopicActionE14topic_action_e(ptr noundef nonnull align 8 dereferenceable(216) %5, i32 noundef %3)
  br label %6

6:                                                ; preds = %4, %1
  ret void
}